target datalayout = "e-m:e-p270:32:32-p271:32:32-p272:64:64-i64:64-i128:128-f80:128-n8:16:32:64-S128"
target triple = "x86_64-pc-linux-gnu"

%struct._zend_executor_globals = type { %struct._zval_struct, %struct._zval_struct, [32 x ptr], ptr, ptr, %struct._zend_array, %struct._zend_array, ptr, i32, i32, ptr, ptr, ptr, ptr, ptr, ptr, i64, ptr, ptr, i32, i32, i64, i32, i32, i32, i8, i8, %struct.zend_atomic_bool_s, %struct.zend_atomic_bool_s, ptr, i64, ptr, ptr, %struct._zend_array, %struct._zend_array, i32, i8, %struct._zval_struct, %struct._zval_struct, %struct._zend_stack, %struct._zend_stack, %struct._zend_stack, ptr, i32, i32, i64, ptr, ptr, ptr, %struct._zend_objects_store, ptr, ptr, ptr, [3 x %struct._zend_op], ptr, i8, i8, i64, i32, i32, ptr, [16 x %struct._HashTableIterator], ptr, %union._zend_function, %struct._zend_op, %struct._zend_array, i64, %struct.zend_get_gc_buffer, ptr, ptr, ptr, i64, i8, i32, ptr, ptr, i64, %struct._zend_call_stack, i64, i64, [6 x ptr] }
%struct.zend_atomic_bool_s = type { i8 }
%struct._zval_struct = type { %union._zend_value, %union.anon, %union.anon.2 }
%union._zend_value = type { i64 }
%union.anon = type { i32 }
%union.anon.2 = type { i32 }
%struct._zend_stack = type { i32, i32, i32, ptr }
%struct._zend_objects_store = type { ptr, i32, i32, i32 }
%struct._HashTableIterator = type { ptr, i32, i32 }
%union._zend_function = type { %struct._zend_op_array }
%struct._zend_op_array = type { i8, [3 x i8], i32, ptr, ptr, ptr, i32, i32, ptr, ptr, ptr, ptr, i32, i32, i32, i32, ptr, ptr, ptr, ptr, ptr, i32, i32, ptr, ptr, ptr, i32, i32, i32, i32, ptr, ptr, [6 x ptr] }
%struct._zend_op = type { ptr, %union._znode_op, %union._znode_op, %union._znode_op, i32, i32, i8, i8, i8, i8 }
%union._znode_op = type { i32 }
%struct._zend_array = type { %struct._zend_refcounted_h, %union.anon.5, i32, %union.anon.7, i32, i32, i32, i32, i64, ptr }
%struct._zend_refcounted_h = type { i32, %union.anon.3 }
%union.anon.3 = type { i32 }
%union.anon.5 = type { i32 }
%union.anon.7 = type { ptr }
%struct.zend_get_gc_buffer = type { ptr, ptr, ptr }
%struct._zend_call_stack = type { ptr, i64 }
%struct._zend_object = type { %struct._zend_refcounted_h, i32, ptr, ptr, ptr, [1 x %struct._zval_struct] }
%struct._zend_class_entry = type { i8, ptr, %union.anon.4, i32, i32, i32, i32, ptr, ptr, ptr, %struct._zend_array, %struct._zend_array, %struct._zend_array, ptr, ptr, ptr, ptr, ptr, ptr, ptr, ptr, ptr, ptr, ptr, ptr, ptr, ptr, ptr, ptr, ptr, ptr, ptr, %union.anon.8, ptr, ptr, ptr, ptr, i32, i32, %union.anon.9, ptr, ptr, ptr, ptr, i32, ptr, ptr, %union.anon.10 }
%union.anon.4 = type { ptr }
%union.anon.8 = type { ptr }
%union.anon.9 = type { ptr }
%union.anon.10 = type { %struct.anon.11 }
%struct.anon.11 = type { ptr, i32, i32 }
%struct._zend_string = type { %struct._zend_refcounted_h, i64, i64, [1 x i8] }
%struct._zend_class_iterator_funcs = type { ptr, ptr, ptr, ptr, ptr, ptr }

@executor_globals = external global %struct._zend_executor_globals, align 8
@.str.2 = private unnamed_addr constant [90 x i8] c"Objects returned by %s::getIterator() must be traversable or implement interface Iterator\00", align 1

; Function Attrs: nounwind uwtable
define void @zend_user_it_new_iterator(ptr noundef %0, ptr noundef %1, ptr noundef %2) #0 {
  %4 = alloca ptr, align 8
  %5 = alloca ptr, align 8
  %6 = alloca ptr, align 8
  %7 = alloca i32, align 4
  %8 = alloca ptr, align 8
  %9 = alloca ptr, align 8
  %10 = alloca ptr, align 8
  %11 = alloca ptr, align 8
  %12 = alloca ptr, align 8
  %13 = alloca ptr, align 8
  %14 = alloca ptr, align 8
  store ptr %0, ptr %12, align 8
  store ptr %1, ptr %13, align 8
  store ptr %2, ptr %14, align 8
  %15 = load ptr, ptr %12, align 8
  %16 = getelementptr inbounds %struct._zend_class_entry, ptr %15, i32 0, i32 30
  %17 = load ptr, ptr %16, align 8
  %18 = getelementptr inbounds %struct._zend_class_iterator_funcs, ptr %17, i32 0, i32 0
  %19 = load ptr, ptr %18, align 8
  %20 = load ptr, ptr %13, align 8
  %21 = getelementptr inbounds %struct._zval_struct, ptr %20, i32 0, i32 0
  %22 = load ptr, ptr %21, align 8
  %23 = load ptr, ptr %14, align 8
  store ptr %19, ptr %9, align 8
  store ptr %22, ptr %10, align 8
  store ptr %23, ptr %11, align 8
  %24 = load ptr, ptr %9, align 8
  %25 = load ptr, ptr %10, align 8
  %26 = load ptr, ptr %11, align 8
  store ptr %24, ptr %4, align 8
  store ptr %25, ptr %5, align 8
  store ptr %26, ptr %6, align 8
  store i32 0, ptr %7, align 4
  store ptr null, ptr %8, align 8
  %27 = load ptr, ptr %4, align 8
  %28 = load ptr, ptr %5, align 8
  %29 = load ptr, ptr %5, align 8
  %30 = getelementptr inbounds %struct._zend_object, ptr %29, i32 0, i32 2
  %31 = load ptr, ptr %30, align 8
  %32 = load ptr, ptr %6, align 8
  %33 = load i32, ptr %7, align 4
  %34 = load ptr, ptr %8, align 8
  call void @zend_call_known_function(ptr noundef %27, ptr noundef %28, ptr noundef %31, ptr noundef %32, i32 noundef %33, ptr noundef %34, ptr noundef null) #10
  ret void
}

; Function Attrs: nounwind uwtable
define ptr @zend_user_it_get_new_iterator(ptr noundef %0, ptr noundef %1, i32 noundef %2) #0 {
  %4 = alloca ptr, align 8
  %5 = alloca ptr, align 8
  %6 = alloca ptr, align 8
  %7 = alloca ptr, align 8
  %8 = alloca i32, align 4
  %9 = alloca %struct._zval_struct, align 8
  %10 = alloca ptr, align 8
  %11 = alloca ptr, align 8
  store ptr %0, ptr %6, align 8
  store ptr %1, ptr %7, align 8
  store i32 %2, ptr %8, align 4
  %12 = load ptr, ptr %6, align 8
  %13 = load ptr, ptr %7, align 8
  call void @zend_user_it_new_iterator(ptr noundef %12, ptr noundef %13, ptr noundef %9)
  store ptr %9, ptr %4, align 8
  %14 = load ptr, ptr %4, align 8
  %15 = getelementptr inbounds %struct._zval_struct, ptr %14, i32 0, i32 1
  %16 = load i8, ptr %15, align 8
  %17 = zext i8 %16 to i32
  %18 = icmp eq i32 %17, 8
  br i1 %18, label %19, label %24

19:                                               ; preds = %3
  %20 = getelementptr inbounds %struct._zval_struct, ptr %9, i32 0, i32 0
  %21 = load ptr, ptr %20, align 8
  %22 = getelementptr inbounds %struct._zend_object, ptr %21, i32 0, i32 2
  %23 = load ptr, ptr %22, align 8
  br label %25

24:                                               ; preds = %3
  br label %25

25:                                               ; preds = %24, %19
  %26 = phi ptr [ %23, %19 ], [ null, %24 ]
  store ptr %26, ptr %11, align 8
  %27 = load ptr, ptr %11, align 8
  %28 = icmp ne ptr %27, null
  br i1 %28, label %29, label %46

29:                                               ; preds = %25
  %30 = load ptr, ptr %11, align 8
  %31 = getelementptr inbounds %struct._zend_class_entry, ptr %30, i32 0, i32 33
  %32 = load ptr, ptr %31, align 8
  %33 = icmp ne ptr %32, null
  br i1 %33, label %34, label %46

34:                                               ; preds = %29
  %35 = load ptr, ptr %11, align 8
  %36 = getelementptr inbounds %struct._zend_class_entry, ptr %35, i32 0, i32 33
  %37 = load ptr, ptr %36, align 8
  %38 = icmp eq ptr %37, @zend_user_it_get_new_iterator
  br i1 %38, label %39, label %72

39:                                               ; preds = %34
  %40 = getelementptr inbounds %struct._zval_struct, ptr %9, i32 0, i32 0
  %41 = load ptr, ptr %40, align 8
  %42 = load ptr, ptr %7, align 8
  %43 = getelementptr inbounds %struct._zval_struct, ptr %42, i32 0, i32 0
  %44 = load ptr, ptr %43, align 8
  %45 = icmp eq ptr %41, %44
  br i1 %45, label %46, label %72

46:                                               ; preds = %39, %29, %25
  %47 = load ptr, ptr getelementptr inbounds (%struct._zend_executor_globals, ptr @executor_globals, i32 0, i32 50), align 8
  %48 = icmp ne ptr %47, null
  br i1 %48, label %71, label %49

49:                                               ; preds = %46
  %50 = load ptr, ptr %6, align 8
  %51 = icmp ne ptr %50, null
  br i1 %51, label %52, label %58

52:                                               ; preds = %49
  %53 = load ptr, ptr %6, align 8
  %54 = getelementptr inbounds %struct._zend_class_entry, ptr %53, i32 0, i32 1
  %55 = load ptr, ptr %54, align 8
  %56 = getelementptr inbounds %struct._zend_string, ptr %55, i32 0, i32 3
  %57 = getelementptr inbounds [1 x i8], ptr %56, i64 0, i64 0
  br label %68

58:                                               ; preds = %49
  %59 = load ptr, ptr %7, align 8
  %60 = getelementptr inbounds %struct._zval_struct, ptr %59, i32 0, i32 0
  %61 = load ptr, ptr %60, align 8
  %62 = getelementptr inbounds %struct._zend_object, ptr %61, i32 0, i32 2
  %63 = load ptr, ptr %62, align 8
  %64 = getelementptr inbounds %struct._zend_class_entry, ptr %63, i32 0, i32 1
  %65 = load ptr, ptr %64, align 8
  %66 = getelementptr inbounds %struct._zend_string, ptr %65, i32 0, i32 3
  %67 = getelementptr inbounds [1 x i8], ptr %66, i64 0, i64 0
  br label %68

68:                                               ; preds = %58, %52
  %69 = phi ptr [ %57, %52 ], [ %67, %58 ]
  %70 = call ptr (ptr, i64, ptr, ...) @zend_throw_exception_ex(ptr noundef null, i64 noundef 0, ptr noundef @.str.2, ptr noundef %69)
  br label %71

71:                                               ; preds = %68, %46
  call void @zval_ptr_dtor(ptr noundef %9)
  store ptr null, ptr %5, align 8
  br label %80

72:                                               ; preds = %39, %34
  %73 = load ptr, ptr %11, align 8
  %74 = getelementptr inbounds %struct._zend_class_entry, ptr %73, i32 0, i32 33
  %75 = load ptr, ptr %74, align 8
  %76 = load ptr, ptr %11, align 8
  %77 = load i32, ptr %8, align 4
  %78 = call ptr %75(ptr noundef %76, ptr noundef %9, i32 noundef %77)
  store ptr %78, ptr %10, align 8
  call void @zval_ptr_dtor(ptr noundef %9)
  %79 = load ptr, ptr %10, align 8
  store ptr %79, ptr %5, align 8
  br label %80

80:                                               ; preds = %72, %71
  %81 = load ptr, ptr %5, align 8
  ret ptr %81
}