; Function Attrs: nounwind uwtable
define ptr @zend_user_it_get_new_iterator(ptr nocapture noundef readonly %0, ptr nocapture noundef readonly %1, i32 noundef %2) #0 {
  %4 = alloca %struct._zval_struct, align 8
  %5 = getelementptr inbounds i8, ptr %0, i64 368
  %6 = load ptr, ptr %5, align 8
  %7 = load ptr, ptr %6, align 8
  %8 = load ptr, ptr %1, align 8
  %9 = getelementptr inbounds i8, ptr %8, i64 16
  %10 = load ptr, ptr %9, align 8
  call void @zend_call_known_function(ptr noundef %7, ptr noundef %8, ptr noundef %10, ptr noundef nonnull %4, i32 noundef 0, ptr noundef null, ptr noundef null) #9
  %11 = getelementptr inbounds i8, ptr %4, i64 8
  %12 = load i8, ptr %11, align 8
  %13 = icmp eq i8 %12, 8
  br i1 %13, label %14, label %.thread

14:                                               ; preds = %3
  %15 = load ptr, ptr %4, align 8
  %16 = getelementptr inbounds i8, ptr %15, i64 16
  %17 = load ptr, ptr %16, align 8
  %.not = icmp eq ptr %17, null
  br i1 %.not, label %.thread, label %18

18:                                               ; preds = %14
  %19 = getelementptr inbounds i8, ptr %17, i64 392
  %20 = load ptr, ptr %19, align 8
  %.not17 = icmp eq ptr %20, null
  br i1 %.not17, label %.thread, label %21

21:                                               ; preds = %18
  %22 = icmp eq ptr %20, @zend_user_it_get_new_iterator
  br i1 %22, label %23, label %30

23:                                               ; preds = %21
  %24 = load ptr, ptr %1, align 8
  %25 = icmp eq ptr %15, %24
  br i1 %25, label %.thread, label %30

.thread:                                          ; preds = %3, %23, %18, %14
  %26 = load ptr, ptr getelementptr inbounds (%struct._zend_executor_globals, ptr @executor_globals, i64 0, i32 50), align 8
  %.not18 = icmp eq ptr %26, null
  br i1 %.not18, label %27, label %32

27:                                               ; preds = %.thread
  %.pn.in = getelementptr inbounds i8, ptr %0, i64 8
  %.pn = load ptr, ptr %.pn.in, align 8
  %28 = getelementptr inbounds i8, ptr %.pn, i64 24
  %29 = call ptr (ptr, i64, ptr, ...) @zend_throw_exception_ex(ptr noundef null, i64 noundef 0, ptr noundef nonnull @.str.2, ptr noundef nonnull %28) #9
  br label %32

30:                                               ; preds = %23, %21
  %31 = call ptr %20(ptr noundef nonnull %17, ptr noundef nonnull %4, i32 noundef %2) #9
  br label %32

32:                                               ; preds = %.thread, %27, %30
  %.0 = phi ptr [ %31, %30 ], [ null, %27 ], [ null, %.thread ]
  call void @zval_ptr_dtor(ptr noundef nonnull %4) #9
  ret ptr %.0
}